target datalayout = "e-m:e-p270:32:32-p271:32:32-p272:64:64-i64:64-i128:128-f80:128-n8:16:32:64-S128"
target triple = "x86_64-pc-linux-gnu"

%struct.slurmdb_qos_rec_t = type { i64, ptr, i32, i32, i32, i32, i32, i32, ptr, ptr, ptr, ptr, ptr, ptr, i32, double, i32, i32, i32, i32, i32, i32, ptr, ptr, ptr, ptr, ptr, ptr, ptr, ptr, ptr, ptr, ptr, ptr, ptr, ptr, i32, i32, ptr, ptr, ptr, ptr, ptr, i16, i32, i32, ptr, ptr, double, double }
%struct.slurmdb_used_limits_t = type { i32, ptr, i32, i32, ptr, ptr, ptr, ptr, i32 }

@one_liner = external global i32, align 4
@.str.9 = private unnamed_addr constant [2 x i8] c" \00", align 1
@.str.34 = private unnamed_addr constant [3 x i8] c"%s\00", align 1
@.str.71 = private unnamed_addr constant [10 x i8] c"\0A        \00", align 1
@.str.77 = private unnamed_addr constant [2 x i8] c"N\00", align 1
@.str.80 = private unnamed_addr constant [7 x i8] c"%s%s%s\00", align 1
@.str.81 = private unnamed_addr constant [8 x i8] c"\0A      \00", align 1
@.str.82 = private unnamed_addr constant [3 x i8] c"={\00", align 1
@.str.83 = private unnamed_addr constant [11 x i8] c"MaxJobsPA=\00", align 1
@.str.84 = private unnamed_addr constant [3 x i8] c"%u\00", align 1
@.str.85 = private unnamed_addr constant [6 x i8] c"(%u) \00", align 1
@.str.86 = private unnamed_addr constant [17 x i8] c"MaxJobsAccruePA=\00", align 1
@.str.87 = private unnamed_addr constant [17 x i8] c"MaxSubmitJobsPA=\00", align 1
@.str.88 = private unnamed_addr constant [7 x i8] c"(%u)%s\00", align 1
@.str.89 = private unnamed_addr constant [10 x i8] c"MaxTRESPA\00", align 1
@.str.90 = private unnamed_addr constant [17 x i8] c"MaxTRESRunMinsPA\00", align 1
@.str.91 = private unnamed_addr constant [2 x i8] c"}\00", align 1

; Function Attrs: nounwind uwtable
define internal i32 @_print_used_acct_limit(ptr noundef %0, ptr noundef %1) #0 {
  %3 = alloca ptr, align 8
  %4 = alloca ptr, align 8
  %5 = alloca ptr, align 8
  store ptr %0, ptr %3, align 8
  store ptr %1, ptr %4, align 8
  call void @llvm.lifetime.start.p0(i64 8, ptr %5) #7
  %6 = load i32, ptr @one_liner, align 4
  %7 = icmp ne i32 %6, 0
  %8 = select i1 %7, ptr @.str.9, ptr @.str.71
  store ptr %8, ptr %5, align 8
  %9 = load i32, ptr @one_liner, align 4
  %10 = icmp ne i32 %9, 0
  %11 = select i1 %10, ptr @.str.9, ptr @.str.81
  %12 = load ptr, ptr %3, align 8
  %13 = getelementptr inbounds nuw %struct.slurmdb_used_limits_t, ptr %12, i32 0, i32 1
  %14 = load ptr, ptr %13, align 8
  %15 = load i32, ptr @one_liner, align 4
  %16 = icmp ne i32 %15, 0
  br i1 %16, label %17, label %18

17:                                               ; preds = %2
  br label %20

18:                                               ; preds = %2
  %19 = load ptr, ptr %5, align 8
  br label %20

20:                                               ; preds = %18, %17
  %21 = phi ptr [ @.str.82, %17 ], [ %19, %18 ]
  %22 = call i32 (ptr, ...) @printf(ptr noundef @.str.80, ptr noundef %11, ptr noundef %14, ptr noundef %21)
  %23 = call i32 (ptr, ...) @printf(ptr noundef @.str.83)
  %24 = load ptr, ptr %4, align 8
  %25 = getelementptr inbounds nuw %struct.slurmdb_qos_rec_t, ptr %24, i32 0, i32 16
  %26 = load i32, ptr %25, align 8
  %27 = icmp ne i32 %26, -1
  br i1 %27, label %28, label %33

28:                                               ; preds = %20
  %29 = load ptr, ptr %4, align 8
  %30 = getelementptr inbounds nuw %struct.slurmdb_qos_rec_t, ptr %29, i32 0, i32 16
  %31 = load i32, ptr %30, align 8
  %32 = call i32 (ptr, ...) @printf(ptr noundef @.str.84, i32 noundef %31)
  br label %35

33:                                               ; preds = %20
  %34 = call i32 (ptr, ...) @printf(ptr noundef @.str.77)
  br label %35

35:                                               ; preds = %33, %28
  %36 = load ptr, ptr %3, align 8
  %37 = getelementptr inbounds nuw %struct.slurmdb_used_limits_t, ptr %36, i32 0, i32 2
  %38 = load i32, ptr %37, align 8
  %39 = call i32 (ptr, ...) @printf(ptr noundef @.str.85, i32 noundef %38)
  %40 = call i32 (ptr, ...) @printf(ptr noundef @.str.86)
  %41 = load ptr, ptr %4, align 8
  %42 = getelementptr inbounds nuw %struct.slurmdb_qos_rec_t, ptr %41, i32 0, i32 18
  %43 = load i32, ptr %42, align 8
  %44 = icmp ne i32 %43, -1
  br i1 %44, label %45, label %50

45:                                               ; preds = %35
  %46 = load ptr, ptr %4, align 8
  %47 = getelementptr inbounds nuw %struct.slurmdb_qos_rec_t, ptr %46, i32 0, i32 18
  %48 = load i32, ptr %47, align 8
  %49 = call i32 (ptr, ...) @printf(ptr noundef @.str.84, i32 noundef %48)
  br label %52

50:                                               ; preds = %35
  %51 = call i32 (ptr, ...) @printf(ptr noundef @.str.77)
  br label %52

52:                                               ; preds = %50, %45
  %53 = load ptr, ptr %3, align 8
  %54 = getelementptr inbounds nuw %struct.slurmdb_used_limits_t, ptr %53, i32 0, i32 0
  %55 = load i32, ptr %54, align 8
  %56 = call i32 (ptr, ...) @printf(ptr noundef @.str.85, i32 noundef %55)
  %57 = call i32 (ptr, ...) @printf(ptr noundef @.str.87)
  %58 = load ptr, ptr %4, align 8
  %59 = getelementptr inbounds nuw %struct.slurmdb_qos_rec_t, ptr %58, i32 0, i32 20
  %60 = load i32, ptr %59, align 8
  %61 = icmp ne i32 %60, -1
  br i1 %61, label %62, label %67

62:                                               ; preds = %52
  %63 = load ptr, ptr %4, align 8
  %64 = getelementptr inbounds nuw %struct.slurmdb_qos_rec_t, ptr %63, i32 0, i32 20
  %65 = load i32, ptr %64, align 8
  %66 = call i32 (ptr, ...) @printf(ptr noundef @.str.84, i32 noundef %65)
  br label %69

67:                                               ; preds = %52
  %68 = call i32 (ptr, ...) @printf(ptr noundef @.str.77)
  br label %69

69:                                               ; preds = %67, %62
  %70 = load ptr, ptr %3, align 8
  %71 = getelementptr inbounds nuw %struct.slurmdb_used_limits_t, ptr %70, i32 0, i32 3
  %72 = load i32, ptr %71, align 4
  %73 = load ptr, ptr %5, align 8
  %74 = call i32 (ptr, ...) @printf(ptr noundef @.str.88, i32 noundef %72, ptr noundef %73)
  %75 = load ptr, ptr %4, align 8
  %76 = getelementptr inbounds nuw %struct.slurmdb_qos_rec_t, ptr %75, i32 0, i32 25
  %77 = load ptr, ptr %76, align 8
  %78 = load ptr, ptr %3, align 8
  %79 = getelementptr inbounds nuw %struct.slurmdb_used_limits_t, ptr %78, i32 0, i32 4
  %80 = load ptr, ptr %79, align 8
  call void @_print_tres_line(ptr noundef @.str.89, ptr noundef %77, ptr noundef %80, i64 noundef 0)
  %81 = load ptr, ptr %5, align 8
  %82 = call i32 (ptr, ...) @printf(ptr noundef @.str.34, ptr noundef %81)
  %83 = load ptr, ptr %4, align 8
  %84 = getelementptr inbounds nuw %struct.slurmdb_qos_rec_t, ptr %83, i32 0, i32 33
  %85 = load ptr, ptr %84, align 8
  %86 = load ptr, ptr %3, align 8
  %87 = getelementptr inbounds nuw %struct.slurmdb_used_limits_t, ptr %86, i32 0, i32 5
  %88 = load ptr, ptr %87, align 8
  call void @_print_tres_line(ptr noundef @.str.90, ptr noundef %85, ptr noundef %88, i64 noundef 60)
  %89 = load i32, ptr @one_liner, align 4
  %90 = icmp ne i32 %89, 0
  br i1 %90, label %91, label %93

91:                                               ; preds = %69
  %92 = call i32 (ptr, ...) @printf(ptr noundef @.str.91)
  br label %93

93:                                               ; preds = %91, %69
  call void @llvm.lifetime.end.p0(i64 8, ptr %5) #7
  ret i32 0
}