; Function Attrs: nofree nounwind uwtable
define internal noundef i32 @_print_used_acct_limit(ptr noundef readonly captures(none) %0, ptr noundef readonly captures(none) %1) #6 {
  %3 = load i32, ptr @one_liner, align 4
  %.not = icmp eq i32 %3, 0
  %4 = select i1 %.not, ptr @.str.71, ptr @.str.9
  %5 = select i1 %.not, ptr @.str.81, ptr @.str.9
  %6 = getelementptr inbounds nuw i8, ptr %0, i64 8
  %7 = load ptr, ptr %6, align 8
  %8 = select i1 %.not, ptr @.str.71, ptr @.str.82
  %9 = tail call i32 (ptr, ...) @printf(ptr noundef nonnull dereferenceable(1) @.str.80, ptr noundef nonnull %5, ptr noundef %7, ptr noundef nonnull %8)
  %10 = tail call i32 (ptr, ...) @printf(ptr noundef nonnull dereferenceable(1) @.str.83)
  %11 = getelementptr inbounds nuw i8, ptr %1, i64 104
  %12 = load i32, ptr %11, align 8
  %.not19 = icmp eq i32 %12, -1
  br i1 %.not19, label %15, label %13

13:                                               ; preds = %2
  %14 = tail call i32 (ptr, ...) @printf(ptr noundef nonnull dereferenceable(1) @.str.84, i32 noundef %12)
  br label %16

15:                                               ; preds = %2
  %putchar = tail call i32 @putchar(i32 78)
  br label %16

16:                                               ; preds = %15, %13
  %17 = getelementptr inbounds nuw i8, ptr %0, i64 16
  %18 = load i32, ptr %17, align 8
  %19 = tail call i32 (ptr, ...) @printf(ptr noundef nonnull dereferenceable(1) @.str.85, i32 noundef %18)
  %20 = tail call i32 (ptr, ...) @printf(ptr noundef nonnull dereferenceable(1) @.str.86)
  %21 = getelementptr inbounds nuw i8, ptr %1, i64 112
  %22 = load i32, ptr %21, align 8
  %.not20 = icmp eq i32 %22, -1
  br i1 %.not20, label %25, label %23

23:                                               ; preds = %16
  %24 = tail call i32 (ptr, ...) @printf(ptr noundef nonnull dereferenceable(1) @.str.84, i32 noundef %22)
  br label %26

25:                                               ; preds = %16
  %putchar21 = tail call i32 @putchar(i32 78)
  br label %26

26:                                               ; preds = %25, %23
  %27 = load i32, ptr %0, align 8
  %28 = tail call i32 (ptr, ...) @printf(ptr noundef nonnull dereferenceable(1) @.str.85, i32 noundef %27)
  %29 = tail call i32 (ptr, ...) @printf(ptr noundef nonnull dereferenceable(1) @.str.87)
  %30 = getelementptr inbounds nuw i8, ptr %1, i64 120
  %31 = load i32, ptr %30, align 8
  %.not22 = icmp eq i32 %31, -1
  br i1 %.not22, label %34, label %32

32:                                               ; preds = %26
  %33 = tail call i32 (ptr, ...) @printf(ptr noundef nonnull dereferenceable(1) @.str.84, i32 noundef %31)
  br label %35

34:                                               ; preds = %26
  %putchar23 = tail call i32 @putchar(i32 78)
  br label %35

35:                                               ; preds = %34, %32
  %36 = getelementptr inbounds nuw i8, ptr %0, i64 20
  %37 = load i32, ptr %36, align 4
  %38 = tail call i32 (ptr, ...) @printf(ptr noundef nonnull dereferenceable(1) @.str.88, i32 noundef %37, ptr noundef nonnull %4)
  %39 = getelementptr inbounds nuw i8, ptr %1, i64 152
  %40 = load ptr, ptr %39, align 8
  %41 = getelementptr inbounds nuw i8, ptr %0, i64 24
  %42 = load ptr, ptr %41, align 8
  tail call fastcc void @_print_tres_line(ptr noundef nonnull @.str.89, ptr noundef %40, ptr noundef %42, i64 noundef 0)
  %43 = tail call i32 (ptr, ...) @printf(ptr noundef nonnull dereferenceable(1) @.str.34, ptr noundef nonnull %4)
  %44 = getelementptr inbounds nuw i8, ptr %1, i64 216
  %45 = load ptr, ptr %44, align 8
  %46 = getelementptr inbounds nuw i8, ptr %0, i64 32
  %47 = load ptr, ptr %46, align 8
  tail call fastcc void @_print_tres_line(ptr noundef nonnull @.str.90, ptr noundef %45, ptr noundef %47, i64 noundef 60)
  %48 = load i32, ptr @one_liner, align 4
  %.not24 = icmp eq i32 %48, 0
  br i1 %.not24, label %50, label %49

49:                                               ; preds = %35
  %putchar25 = tail call i32 @putchar(i32 125)
  br label %50

50:                                               ; preds = %49, %35
  ret i32 0
}